target datalayout = "e-m:e-p270:32:32-p271:32:32-p272:64:64-i64:64-i128:128-f80:128-n8:16:32:64-S128"
target triple = "x86_64-unknown-linux-gnu"

%"class.boost::basic_string_view" = type { ptr, i64 }
%"class.std::__cxx11::basic_string" = type { %"struct.std::__cxx11::basic_string<char>::_Alloc_hider", i64, %union.anon }
%"struct.std::__cxx11::basic_string<char>::_Alloc_hider" = type { ptr }
%union.anon = type { i64, [8 x i8] }

@.str = private unnamed_addr constant [5 x i8] c"HMUZ\00", align 1
@_ZN8QuantLib12_GLOBAL__N_115All_MONTH_CODESE = internal constant %"class.boost::basic_string_view" { ptr @.str.7, i64 12 }, align 8

; Function Attrs: noinline noreturn nounwind uwtable
define linkonce_odr hidden void @__clang_call_terminate(ptr noundef %0) #1 comdat {
  %2 = call ptr @__cxa_begin_catch(ptr %0) #10
  call void @_ZSt9terminatev() #15
  unreachable
}

; Function Attrs: mustprogress nounwind uwtable
define linkonce_odr noundef ptr @_ZNSt11char_traitsIcE4findEPKcmRS1_(ptr noundef %__s, i64 noundef %__n, ptr noundef nonnull align 1 dereferenceable(1) %__a) #3 comdat align 2 {
entry:
  %retval = alloca ptr, align 8
  %__s.addr = alloca ptr, align 8
  %__n.addr = alloca i64, align 8
  %__a.addr = alloca ptr, align 8
  store ptr %__s, ptr %__s.addr, align 8, !tbaa !3
  store i64 %__n, ptr %__n.addr, align 8, !tbaa !18
  store ptr %__a, ptr %__a.addr, align 8, !tbaa !3
  %0 = load i64, ptr %__n.addr, align 8, !tbaa !18
  %cmp = icmp eq i64 %0, 0
  br i1 %cmp, label %if.then, label %if.end

if.then:                                          ; preds = %entry
  store ptr null, ptr %retval, align 8
  br label %return

if.end:                                           ; preds = %entry
  %1 = load ptr, ptr %__s.addr, align 8, !tbaa !3
  %2 = load ptr, ptr %__a.addr, align 8, !tbaa !3
  %3 = load i8, ptr %2, align 1, !tbaa !16
  %conv = sext i8 %3 to i32
  %4 = load i64, ptr %__n.addr, align 8, !tbaa !18
  %call = call ptr @memchr(ptr noundef %1, i32 noundef %conv, i64 noundef %4) #10
  store ptr %call, ptr %retval, align 8
  br label %return

return:                                           ; preds = %if.end, %if.then
  %5 = load ptr, ptr %retval, align 8
  ret ptr %5
}

; Function Attrs: mustprogress nounwind uwtable
define linkonce_odr noundef i64 @_ZNK5boost17basic_string_viewIcSt11char_traitsIcEE4sizeEv(ptr noundef nonnull align 8 dereferenceable(16) %this) #3 comdat align 2 {
entry:
  %this.addr = alloca ptr, align 8
  store ptr %this, ptr %this.addr, align 8, !tbaa !3
  %this1 = load ptr, ptr %this.addr, align 8
  %len_ = getelementptr inbounds nuw %"class.boost::basic_string_view", ptr %this1, i32 0, i32 1
  %0 = load i64, ptr %len_, align 8, !tbaa !24
  ret i64 %0
}

; Function Attrs: mustprogress nounwind uwtable
define linkonce_odr noundef i64 @_ZNSt11char_traitsIcE6lengthEPKc(ptr noundef %__s) #3 comdat align 2 {
entry:
  %__s.addr = alloca ptr, align 8
  store ptr %__s, ptr %__s.addr, align 8, !tbaa !3
  %0 = load ptr, ptr %__s.addr, align 8, !tbaa !3
  %call = call i64 @strlen(ptr noundef %0) #10
  ret i64 %call
}

; Function Attrs: mustprogress nounwind uwtable
define available_externally noundef ptr @_ZNKSt7__cxx1112basic_stringIcSt11char_traitsIcESaIcEE7_M_dataEv(ptr noundef nonnull align 8 dereferenceable(32) %this) #3 align 2 {
entry:
  %this.addr = alloca ptr, align 8
  store ptr %this, ptr %this.addr, align 8, !tbaa !3
  %this1 = load ptr, ptr %this.addr, align 8
  %_M_dataplus = getelementptr inbounds nuw %"class.std::__cxx11::basic_string", ptr %this1, i32 0, i32 0
  %_M_p = getelementptr inbounds nuw %"struct.std::__cxx11::basic_string<char>::_Alloc_hider", ptr %_M_dataplus, i32 0, i32 0
  %0 = load ptr, ptr %_M_p, align 8, !tbaa !36
  ret ptr %0
}

; Function Attrs: mustprogress nounwind uwtable
define linkonce_odr noundef i64 @_ZNK5boost17basic_string_viewIcSt11char_traitsIcEE4findEcm(ptr noundef nonnull align 8 dereferenceable(16) %this, i8 noundef signext %c, i64 noundef %pos) #3 comdat align 2 personality ptr @__gxx_personality_v0 {
entry:
  %retval = alloca i64, align 8
  %this.addr = alloca ptr, align 8
  %c.addr = alloca i8, align 1
  %pos.addr = alloca i64, align 8
  %ret_ptr = alloca ptr, align 8
  %cleanup.dest.slot = alloca i32, align 4
  store ptr %this, ptr %this.addr, align 8, !tbaa !3
  store i8 %c, ptr %c.addr, align 1, !tbaa !16
  store i64 %pos, ptr %pos.addr, align 8, !tbaa !18
  %this1 = load ptr, ptr %this.addr, align 8
  %0 = load i64, ptr %pos.addr, align 8, !tbaa !18
  %call = call noundef i64 @_ZNK5boost17basic_string_viewIcSt11char_traitsIcEE4sizeEv(ptr noundef nonnull align 8 dereferenceable(16) %this1) #10
  %cmp = icmp ugt i64 %0, %call
  br i1 %cmp, label %if.then, label %if.end

if.then:                                          ; preds = %entry
  store i64 -1, ptr %retval, align 8
  br label %return

if.end:                                           ; preds = %entry
  call void @llvm.lifetime.start.p0(i64 8, ptr %ret_ptr) #10
  %ptr_ = getelementptr inbounds nuw %"class.boost::basic_string_view", ptr %this1, i32 0, i32 0
  %1 = load ptr, ptr %ptr_, align 8, !tbaa !22
  %2 = load i64, ptr %pos.addr, align 8, !tbaa !18
  %add.ptr = getelementptr inbounds nuw i8, ptr %1, i64 %2
  %len_ = getelementptr inbounds nuw %"class.boost::basic_string_view", ptr %this1, i32 0, i32 1
  %3 = load i64, ptr %len_, align 8, !tbaa !24
  %4 = load i64, ptr %pos.addr, align 8, !tbaa !18
  %sub = sub i64 %3, %4
  %call2 = invoke noundef ptr @_ZNSt11char_traitsIcE4findEPKcmRS1_(ptr noundef %add.ptr, i64 noundef %sub, ptr noundef nonnull align 1 dereferenceable(1) %c.addr)
          to label %invoke.cont unwind label %terminate.lpad

invoke.cont:                                      ; preds = %if.end
  store ptr %call2, ptr %ret_ptr, align 8, !tbaa !3
  %5 = load ptr, ptr %ret_ptr, align 8, !tbaa !3
  %tobool = icmp ne ptr %5, null
  br i1 %tobool, label %if.then3, label %if.end5

if.then3:                                         ; preds = %invoke.cont
  %6 = load ptr, ptr %ret_ptr, align 8, !tbaa !3
  %ptr_4 = getelementptr inbounds nuw %"class.boost::basic_string_view", ptr %this1, i32 0, i32 0
  %7 = load ptr, ptr %ptr_4, align 8, !tbaa !22
  %sub.ptr.lhs.cast = ptrtoint ptr %6 to i64
  %sub.ptr.rhs.cast = ptrtoint ptr %7 to i64
  %sub.ptr.sub = sub i64 %sub.ptr.lhs.cast, %sub.ptr.rhs.cast
  store i64 %sub.ptr.sub, ptr %retval, align 8
  store i32 1, ptr %cleanup.dest.slot, align 4
  br label %cleanup

if.end5:                                          ; preds = %invoke.cont
  store i64 -1, ptr %retval, align 8
  store i32 1, ptr %cleanup.dest.slot, align 4
  br label %cleanup

cleanup:                                          ; preds = %if.end5, %if.then3
  call void @llvm.lifetime.end.p0(i64 8, ptr %ret_ptr) #10
  br label %return

return:                                           ; preds = %cleanup, %if.then
  %8 = load i64, ptr %retval, align 8
  ret i64 %8

terminate.lpad:                                   ; preds = %if.end
  %9 = landingpad { ptr, i32 }
          catch ptr null
  %10 = extractvalue { ptr, i32 } %9, 0
  call void @__clang_call_terminate(ptr %10) #15
  unreachable
}

; Function Attrs: mustprogress uwtable
define linkonce_odr void @_ZN5boost17basic_string_viewIcSt11char_traitsIcEEC2EPKc(ptr noundef nonnull align 8 dereferenceable(16) %this, ptr noundef %str) unnamed_addr #4 comdat align 2 {
entry:
  %this.addr = alloca ptr, align 8
  %str.addr = alloca ptr, align 8
  store ptr %this, ptr %this.addr, align 8, !tbaa !3
  store ptr %str, ptr %str.addr, align 8, !tbaa !3
  %this1 = load ptr, ptr %this.addr, align 8
  %ptr_ = getelementptr inbounds nuw %"class.boost::basic_string_view", ptr %this1, i32 0, i32 0
  %0 = load ptr, ptr %str.addr, align 8, !tbaa !3
  store ptr %0, ptr %ptr_, align 8, !tbaa !22
  %len_ = getelementptr inbounds nuw %"class.boost::basic_string_view", ptr %this1, i32 0, i32 1
  %1 = load ptr, ptr %str.addr, align 8, !tbaa !3
  %call = call noundef i64 @_ZNSt11char_traitsIcE6lengthEPKc(ptr noundef %1)
  store i64 %call, ptr %len_, align 8, !tbaa !24
  ret void
}

; Function Attrs: mustprogress nounwind uwtable
define available_externally noundef nonnull align 1 dereferenceable(1) ptr @_ZNKSt7__cxx1112basic_stringIcSt11char_traitsIcESaIcEEixEm(ptr noundef nonnull align 8 dereferenceable(32) %this, i64 noundef %__pos) #3 align 2 {
entry:
  %this.addr = alloca ptr, align 8
  %__pos.addr = alloca i64, align 8
  store ptr %this, ptr %this.addr, align 8, !tbaa !3
  store i64 %__pos, ptr %__pos.addr, align 8, !tbaa !18
  %this1 = load ptr, ptr %this.addr, align 8
  br label %do.body

do.body:                                          ; preds = %entry
  br label %do.cond

do.cond:                                          ; preds = %do.body
  br label %do.end

do.end:                                           ; preds = %do.cond
  %call = call noundef ptr @_ZNKSt7__cxx1112basic_stringIcSt11char_traitsIcESaIcEE7_M_dataEv(ptr noundef nonnull align 8 dereferenceable(32) %this1)
  %0 = load i64, ptr %__pos.addr, align 8, !tbaa !18
  %arrayidx = getelementptr inbounds nuw i8, ptr %call, i64 %0
  ret ptr %arrayidx
}

; Function Attrs: mustprogress nounwind uwtable
define available_externally noundef i64 @_ZNKSt7__cxx1112basic_stringIcSt11char_traitsIcESaIcEE6lengthEv(ptr noundef nonnull align 8 dereferenceable(32) %this) #3 align 2 {
entry:
  %this.addr = alloca ptr, align 8
  store ptr %this, ptr %this.addr, align 8, !tbaa !3
  %this1 = load ptr, ptr %this.addr, align 8
  %_M_string_length = getelementptr inbounds nuw %"class.std::__cxx11::basic_string", ptr %this1, i32 0, i32 1
  %0 = load i64, ptr %_M_string_length, align 8, !tbaa !19
  ret i64 %0
}

; Function Attrs: mustprogress uwtable
define noundef zeroext i1 @_ZN8QuantLib3ASX9isASXcodeERKNSt7__cxx1112basic_stringIcSt11char_traitsIcESaIcEEEb(ptr noundef nonnull align 8 dereferenceable(32) %in, i1 noundef zeroext %mainCycle) #4 align 2 {
entry:
  %retval = alloca i1, align 1
  %in.addr = alloca ptr, align 8
  %mainCycle.addr = alloca i8, align 1
  %validMonthCodes = alloca %"class.boost::basic_string_view", align 8
  store ptr %in, ptr %in.addr, align 8, !tbaa !3
  %storedv = zext i1 %mainCycle to i8
  store i8 %storedv, ptr %mainCycle.addr, align 1, !tbaa !7
  %0 = load ptr, ptr %in.addr, align 8, !tbaa !3
  %call = call noundef i64 @_ZNKSt7__cxx1112basic_stringIcSt11char_traitsIcESaIcEE6lengthEv(ptr noundef nonnull align 8 dereferenceable(32) %0) #10
  %cmp = icmp ne i64 %call, 2
  br i1 %cmp, label %if.then, label %if.end

if.then:                                          ; preds = %entry
  store i1 false, ptr %retval, align 1
  br label %return

if.end:                                           ; preds = %entry
  %1 = load ptr, ptr %in.addr, align 8, !tbaa !3
  %call1 = call noundef nonnull align 1 dereferenceable(1) ptr @_ZNKSt7__cxx1112basic_stringIcSt11char_traitsIcESaIcEEixEm(ptr noundef nonnull align 8 dereferenceable(32) %1, i64 noundef 1) #10
  %2 = load i8, ptr %call1, align 1, !tbaa !16
  %conv = zext i8 %2 to i32
  %call2 = call i32 @isdigit(i32 noundef %conv) #16
  %cmp3 = icmp eq i32 %call2, 0
  br i1 %cmp3, label %if.then4, label %if.end5

if.then4:                                         ; preds = %if.end
  store i1 false, ptr %retval, align 1
  br label %return

if.end5:                                          ; preds = %if.end
  call void @llvm.lifetime.start.p0(i64 16, ptr %validMonthCodes) #10
  %3 = load i8, ptr %mainCycle.addr, align 1, !tbaa !7, !range !11, !noundef !12
  %loadedv = trunc i8 %3 to i1
  br i1 %loadedv, label %cond.true, label %cond.false

cond.true:                                        ; preds = %if.end5
  call void @_ZN5boost17basic_string_viewIcSt11char_traitsIcEEC2EPKc(ptr noundef nonnull align 8 dereferenceable(16) %validMonthCodes, ptr noundef @.str)
  br label %cond.end

cond.false:                                       ; preds = %if.end5
  call void @llvm.memcpy.p0.p0.i64(ptr align 8 %validMonthCodes, ptr align 8 @_ZN8QuantLib12_GLOBAL__N_115All_MONTH_CODESE, i64 16, i1 false), !tbaa.struct !17
  br label %cond.end

cond.end:                                         ; preds = %cond.false, %cond.true
  %4 = load ptr, ptr %in.addr, align 8, !tbaa !3
  %call6 = call noundef nonnull align 1 dereferenceable(1) ptr @_ZNKSt7__cxx1112basic_stringIcSt11char_traitsIcESaIcEEixEm(ptr noundef nonnull align 8 dereferenceable(32) %4, i64 noundef 0) #10
  %5 = load i8, ptr %call6, align 1, !tbaa !16
  %conv7 = sext i8 %5 to i32
  %call8 = call i32 @toupper(i32 noundef %conv7) #16
  %conv9 = trunc i32 %call8 to i8
  %call10 = call noundef i64 @_ZNK5boost17basic_string_viewIcSt11char_traitsIcEE4findEcm(ptr noundef nonnull align 8 dereferenceable(16) %validMonthCodes, i8 noundef signext %conv9, i64 noundef 0) #10
  %cmp11 = icmp ne i64 %call10, -1
  store i1 %cmp11, ptr %retval, align 1
  call void @llvm.lifetime.end.p0(i64 16, ptr %validMonthCodes) #10
  br label %return

return:                                           ; preds = %cond.end, %if.then4, %if.then
  %6 = load i1, ptr %retval, align 1
  ret i1 %6
}