; Function Attrs: mustprogress nofree nounwind willreturn memory(read) uwtable
define noundef zeroext i1 @_ZN8QuantLib3ASX9isASXcodeERKNSt7__cxx1112basic_stringIcSt11char_traitsIcESaIcEEEb(ptr nocapture noundef nonnull readonly align 8 dereferenceable(32) %in, i1 noundef zeroext %mainCycle) local_unnamed_addr #5 align 2 personality ptr @__gxx_personality_v0 {
entry:
  %_M_string_length.i = getelementptr inbounds nuw i8, ptr %in, i64 8
  %0 = load i64, ptr %_M_string_length.i, align 8, !tbaa !8
  %cmp.not = icmp eq i64 %0, 2
  br i1 %cmp.not, label %if.end, label %return

if.end:                                           ; preds = %entry
  %1 = load ptr, ptr %in, align 8, !tbaa !12
  %arrayidx.i = getelementptr inbounds nuw i8, ptr %1, i64 1
  %2 = load i8, ptr %arrayidx.i, align 1, !tbaa !13
  %conv = zext i8 %2 to i32
  %3 = add nsw i32 %conv, -58
  %isdigit = icmp ult i32 %3, -10
  br i1 %isdigit, label %return, label %if.end5

if.end5:                                          ; preds = %if.end
  %4 = load i8, ptr %1, align 1, !tbaa !13
  %conv7 = sext i8 %4 to i32
  %call8 = tail call i32 @toupper(i32 noundef %conv7) #19
  %.str..str.7 = select i1 %mainCycle, ptr @.str, ptr @.str.7
  %. = select i1 %mainCycle, i64 4, i64 12
  %sext = shl i32 %call8, 24
  %conv.i.i = ashr exact i32 %sext, 24
  %call.i.i4 = tail call ptr @memchr(ptr noundef nonnull dereferenceable(1) %.str..str.7, i32 noundef %conv.i.i, i64 noundef %.) #17
  %5 = ptrtoint ptr %.str..str.7 to i64
  %tobool.not.i = icmp ne ptr %call.i.i4, null
  %sub.ptr.lhs.cast.i = ptrtoint ptr %call.i.i4 to i64
  %sub.ptr.sub.i = sub i64 %sub.ptr.lhs.cast.i, %5
  %cmp1115 = icmp ne i64 %sub.ptr.sub.i, -1
  %cmp11 = select i1 %tobool.not.i, i1 %cmp1115, i1 false
  br label %return

return:                                           ; preds = %if.end, %entry, %if.end5
  %retval.0 = phi i1 [ %cmp11, %if.end5 ], [ false, %entry ], [ false, %if.end ]
  ret i1 %retval.0
}